; ModuleID = '4/2025.c'
source_filename = "4/2025.c"
target datalayout = "e-m:e-p270:32:32-p271:32:32-p272:64:64-i64:64-f80:128-n8:16:32:64-S128"
target triple = "x86_64-pc-linux-gnu"

@.str = private unnamed_addr constant [5 x i8] c"%d%d\00", align 1
@.str.1 = private unnamed_addr constant [3 x i8] c"%d\00", align 1
@.str.2 = private unnamed_addr constant [4 x i8] c"%d\0A\00", align 1

; Function Attrs: noinline nounwind uwtable
define dso_local i32 @main() #0 {
  %1 = alloca i32, align 4
  %2 = alloca i32, align 4
  %3 = alloca i32, align 4
  %4 = alloca i32, align 4
  %5 = alloca i32, align 4
  %6 = alloca i32, align 4
  %7 = alloca [100 x [100 x i32]], align 16
  store i32 0, i32* %1, align 4
  %8 = call i32 (i8*, ...) @__isoc99_scanf(i8* getelementptr inbounds ([5 x i8], [5 x i8]* @.str, i64 0, i64 0), i32* %2, i32* %3)
  store i32 0, i32* %4, align 4
  br label %9

9:                                                ; preds = %30, %0
  %10 = load i32, i32* %4, align 4
  %11 = load i32, i32* %2, align 4
  %12 = icmp slt i32 %10, %11
  br i1 %12, label %13, label %33

13:                                               ; preds = %9
  store i32 0, i32* %5, align 4
  br label %14

14:                                               ; preds = %26, %13
  %15 = load i32, i32* %5, align 4
  %16 = load i32, i32* %3, align 4
  %17 = icmp slt i32 %15, %16
  br i1 %17, label %18, label %29

18:                                               ; preds = %14
  %19 = load i32, i32* %4, align 4
  %20 = sext i32 %19 to i64
  %21 = getelementptr inbounds [100 x [100 x i32]], [100 x [100 x i32]]* %7, i64 0, i64 %20
  %22 = load i32, i32* %5, align 4
  %23 = sext i32 %22 to i64
  %24 = getelementptr inbounds [100 x i32], [100 x i32]* %21, i64 0, i64 %23
  %25 = call i32 (i8*, ...) @__isoc99_scanf(i8* getelementptr inbounds ([3 x i8], [3 x i8]* @.str.1, i64 0, i64 0), i32* %24)
  br label %26

26:                                               ; preds = %18
  %27 = load i32, i32* %5, align 4
  %28 = add nsw i32 %27, 1
  store i32 %28, i32* %5, align 4
  br label %14

29:                                               ; preds = %14
  br label %30

30:                                               ; preds = %29
  %31 = load i32, i32* %4, align 4
  %32 = add nsw i32 %31, 1
  store i32 %32, i32* %4, align 4
  br label %9

33:                                               ; preds = %9
  store i32 0, i32* %5, align 4
  br label %34

34:                                               ; preds = %69, %33
  %35 = load i32, i32* %5, align 4
  %36 = load i32, i32* %3, align 4
  %37 = sub nsw i32 %36, 1
  %38 = icmp slt i32 %35, %37
  br i1 %38, label %39, label %68

39:                                               ; preds = %34
  %40 = load i32, i32* %5, align 4
  store i32 %40, i32* %6, align 4
  br label %41

41:                                               ; preds = %64, %39
  %42 = load i32, i32* %6, align 4
  %43 = icmp sge i32 %42, 0
  br i1 %43, label %44, label %63

44:                                               ; preds = %41
  %45 = load i32, i32* %5, align 4
  %46 = load i32, i32* %6, align 4
  %47 = sub nsw i32 %45, %46
  %48 = load i32, i32* %2, align 4
  %49 = icmp slt i32 %47, %48
  br i1 %49, label %50, label %63

50:                                               ; preds = %44
  %51 = load i32, i32* %5, align 4
  %52 = load i32, i32* %6, align 4
  %53 = sub nsw i32 %51, %52
  %54 = sext i32 %53 to i64
  %55 = getelementptr inbounds [100 x [100 x i32]], [100 x [100 x i32]]* %7, i64 0, i64 %54
  %56 = load i32, i32* %6, align 4
  %57 = sext i32 %56 to i64
  %58 = getelementptr inbounds [100 x i32], [100 x i32]* %55, i64 0, i64 %57
  %59 = load i32, i32* %58, align 4
  %60 = call i32 (i8*, ...) @printf(i8* getelementptr inbounds ([4 x i8], [4 x i8]* @.str.2, i64 0, i64 0), i32 %59)
  %61 = load i32, i32* %6, align 4
  %62 = add nsw i32 %61, -1
  store i32 %62, i32* %6, align 4
  br label %64

63:                                               ; preds = %44, %41
  br label %65

64:                                               ; preds = %50
  br label %41

65:                                               ; preds = %63
  %66 = load i32, i32* %5, align 4
  %67 = add nsw i32 %66, 1
  store i32 %67, i32* %5, align 4
  br label %69

68:                                               ; preds = %34
  br label %70

69:                                               ; preds = %65
  br label %34

70:                                               ; preds = %68
  store i32 0, i32* %4, align 4
  br label %71

71:                                               ; preds = %121, %70
  %72 = load i32, i32* %4, align 4
  %73 = load i32, i32* %2, align 4
  %74 = sub nsw i32 %73, 1
  %75 = icmp sle i32 %72, %74
  br i1 %75, label %76, label %120

76:                                               ; preds = %71
  %77 = load i32, i32* %3, align 4
  %78 = sub nsw i32 %77, 1
  %79 = load i32, i32* %4, align 4
  %80 = add nsw i32 %78, %79
  store i32 %80, i32* %6, align 4
  br label %81

81:                                               ; preds = %116, %76
  %82 = load i32, i32* %6, align 4
  %83 = icmp sge i32 %82, 0
  br i1 %83, label %84, label %115

84:                                               ; preds = %81
  %85 = load i32, i32* %3, align 4
  %86 = sub nsw i32 %85, 1
  %87 = load i32, i32* %4, align 4
  %88 = add nsw i32 %86, %87
  %89 = load i32, i32* %6, align 4
  %90 = sub nsw i32 %88, %89
  %91 = load i32, i32* %2, align 4
  %92 = icmp slt i32 %90, %91
  br i1 %92, label %93, label %115

93:                                               ; preds = %84
  %94 = load i32, i32* %6, align 4
  %95 = load i32, i32* %3, align 4
  %96 = sub nsw i32 %95, 1
  %97 = icmp sle i32 %94, %96
  br i1 %97, label %98, label %112

98:                                               ; preds = %93
  %99 = load i32, i32* %3, align 4
  %100 = sub nsw i32 %99, 1
  %101 = load i32, i32* %4, align 4
  %102 = add nsw i32 %100, %101
  %103 = load i32, i32* %6, align 4
  %104 = sub nsw i32 %102, %103
  %105 = sext i32 %104 to i64
  %106 = getelementptr inbounds [100 x [100 x i32]], [100 x [100 x i32]]* %7, i64 0, i64 %105
  %107 = load i32, i32* %6, align 4
  %108 = sext i32 %107 to i64
  %109 = getelementptr inbounds [100 x i32], [100 x i32]* %106, i64 0, i64 %108
  %110 = load i32, i32* %109, align 4
  %111 = call i32 (i8*, ...) @printf(i8* getelementptr inbounds ([4 x i8], [4 x i8]* @.str.2, i64 0, i64 0), i32 %110)
  br label %112

112:                                              ; preds = %98, %93
  %113 = load i32, i32* %6, align 4
  %114 = add nsw i32 %113, -1
  store i32 %114, i32* %6, align 4
  br label %116

115:                                              ; preds = %84, %81
  br label %117

116:                                              ; preds = %112
  br label %81

117:                                              ; preds = %115
  %118 = load i32, i32* %4, align 4
  %119 = add nsw i32 %118, 1
  store i32 %119, i32* %4, align 4
  br label %121

120:                                              ; preds = %71
  br label %122

121:                                              ; preds = %117
  br label %71

122:                                              ; preds = %120
  ret i32 0
}

declare dso_local i32 @__isoc99_scanf(i8*, ...) #1

declare dso_local i32 @printf(i8*, ...) #1


!llvm.module.flags = !{!0}
!llvm.ident = !{!1}

!0 = !{i32 1, !"wchar_size", i32 4}
!1 = !{!"clang version 10.0.0-4ubuntu1 "}
